(dp1
V1
(dp2
V225.231
p3
F4
sV226.225
p4
F4
sV226.231
p5
F4
sV231.226
p6
F4
sV225.226
p7
F4
sV236.225
p8
F7
sV307.225
p9
F2
sV226.226
p10
F68
sV307.231
p11
F2
sV307.236
p12
F2
sV236.226
p13
F2
sV303.226
p14
F8
sV303.236
p15
F2
sV303.225
p16
F4
sV231.225
p17
F4
sV225.236
p18
F7
sV226.236
p19
F2
sV303.231
p20
F4
ssV0
(dp21
V236.236
p22
F9
sV226.226
p23
F32
sV307.226
p24
F20
sV303.226
p25
F36
sV225.225
p26
F5
sV231.231
p27
F4
ssV3
(dp28
V226.231
p29
F14
sV231.226
p30
F14
sV307.226
p31
F2
sV307.236
p32
F2
sV225.226
p33
F16
sV236.226
p34
F22
sV303.226
p35
F4
sV303.236
p36
F4
sV303.225
p37
F2
sV226.225
p38
F16
sV226.226
p39
F64
sV226.236
p40
F22
sV303.231
p41
F4
ssV2
(dp42
V236.231
p43
F4
sV226.226
p44
F80
sV226.225
p45
F12
sV226.231
p46
F10
sV231.226
p47
F10
sV236.236
p48
F4
sV307.225
p49
F2
sV303.225
p50
F4
sV225.226
p51
F12
sV236.226
p52
F10
sV303.226
p53
F8
sV303.236
p54
F8
sV307.236
p55
F4
sV231.236
p56
F4
sV231.231
p57
F2
sV226.236
p58
F10
sV303.231
p59
F2
ssV5
(dp60
V236.231
p61
F4
sV231.231
p62
F4
sV231.226
p63
F10
sV225.226
p64
F10
sV236.236
p65
F8
sV307.226
p66
F4
sV226.225
p67
F10
sV236.226
p68
F20
sV303.226
p69
F14
sV303.236
p70
F2
sV226.231
p71
F10
sV231.236
p72
F4
sV225.225
p73
F4
sV226.236
p74
F20
sV226.226
p75
F48
ssV4
(dp76
V225.231
p77
F2
sV226.225
p78
F14
sV231.226
p79
F14
sV225.226
p80
F14
sV236.225
p81
F2
sV307.226
p82
F4
sV303.225
p83
F2
sV236.226
p84
F26
sV303.226
p85
F10
sV303.236
p86
F4
sV226.231
p87
F14
sV231.225
p88
F2
sV225.236
p89
F2
sV226.236
p90
F26
sV226.226
p91
F42
ssV7
(dp92
V236.231
p93
F4
sV226.225
p94
F6
sV231.225
p95
F2
sV231.226
p96
F4
sV225.226
p97
F6
sV231.236
p98
F4
sV236.236
p99
F8
sV307.225
p100
F2
sV303.225
p101
F4
sV236.226
p102
F10
sV303.226
p103
F10
sV303.236
p104
F2
sV226.231
p105
F4
sV225.231
p106
F2
sV231.231
p107
F4
sV226.236
p108
F10
sV226.226
p109
F68
ssV6
(dp110
V225.231
p111
F4
sV231.226
p112
F6
sV225.226
p113
F6
sV236.225
p114
F6
sV226.226
p115
F60
sV307.231
p116
F2
sV236.226
p117
F14
sV307.226
p118
F2
sV303.226
p119
F14
sV226.225
p120
F6
sV226.231
p121
F6
sV231.225
p122
F4
sV225.236
p123
F6
sV226.236
p124
F14
sV303.231
p125
F2
ssV9
(dp126
V231.226
p127
F12
sV225.226
p128
F10
sV236.225
p129
F6
sV307.226
p130
F2
sV303.225
p131
F4
sV226.236
p132
F12
sV303.226
p133
F4
sV226.225
p134
F10
sV226.231
p135
F12
sV225.236
p136
F6
sV236.226
p137
F12
sV226.226
p138
F44
ssV8
(dp139
V236.231
p140
F4
sV231.226
p141
F8
sV225.226
p142
F8
sV231.236
p143
F4
sV226.226
p144
F60
sV307.231
p145
F2
sV307.236
p146
F2
sV236.226
p147
F10
sV303.226
p148
F4
sV303.236
p149
F4
sV226.231
p150
F8
sV226.225
p151
F8
sV225.225
p152
F4
sV226.236
p153
F10
sV303.231
p154
F6
ss.